(dp1
S'disp'
p2
(lp3
ccopy_reg
_reconstructor
p4
(cextended_interval_arithmetic
ia
p5
c__builtin__
object
p6
NtRp7
(dp8
S'infinity'
p9
F1.0000000000000001e+25
sS'name'
p10
S'ia(18496.8992376,18496.8992758)'
p11
sS'has_mp'
p12
I01
sS'isempty'
p13
I00
sS'sup'
p14
F18496.899275751784
sS'inf'
p15
F18496.899237575282
sbasS'Ccp'
p16
(lp17
g4
(g5
g6
NtRp18
(dp19
g9
F1.0000000000000001e+25
sg10
S'ia(0.845413447467,0.845417462208)'
p20
sg12
I01
sg13
I00
sg14
F0.84541746220751801
sg15
F0.84541344746742719
sbasS'lfwl'
p21
(lp22
g4
(g5
g6
NtRp23
(dp24
g9
F1.0000000000000001e+25
sg10
S'ia(37.990750458,37.990810458)'
p25
sg12
I01
sg13
I00
sg14
F37.990810457989326
sg15
F37.990750457989321
sbasS'Cdl'
p26
(lp27
g4
(g5
g6
NtRp28
(dp29
g9
F1.0000000000000001e+25
sg10
S'ia(214.063381546,214.063438662)'
p30
sg12
I01
sg13
I00
sg14
F214.06343866226078
sg15
F214.06338154613996
sbasS'Amsh'
p31
(lp32
g4
(g5
g6
NtRp33
(dp34
g9
F1.0000000000000001e+25
sg10
S'ia(319.619271208,319.619331208)'
p35
sg12
I01
sg13
I00
sg14
F319.61933120801547
sg15
F319.6192712080155
sbasS'vol'
p36
(lp37
g4
(g5
g6
NtRp38
(dp39
g9
F1.0000000000000001e+25
sg10
S'ia(18496.8992376,18496.8992758)'
p40
sg12
I01
sg13
I00
sg14
F18496.899275751784
sg15
F18496.899237575282
sbasS'Cb'
p41
(lp42
g4
(g5
g6
NtRp43
(dp44
g9
F1.0000000000000001e+25
sg10
S'ia(0.644636051514,0.644640655715)'
p45
sg12
I01
sg13
I00
sg14
F0.64464065571514406
sg15
F0.64463605151417791
sbasS'Clcg'
p46
(lp47
g4
(g5
g6
NtRp48
(dp49
g9
F1.0000000000000001e+25
sg10
S'ia(0.453407977183,0.453408792537)'
p50
sg12
I01
sg13
I00
sg14
F0.45340879253698785
sg15
F0.45340797718305997
sbasS'Cmidshp'
p51
(lp52
g4
(g5
g6
NtRp53
(dp54
g9
F1.0000000000000001e+25
sg10
S'ia(0.962509811305,0.962516607747)'
p55
sg12
I01
sg13
I00
sg14
F0.96251660774728065
sg15
F0.96250981130541524
sbasS'Cbl'
p56
(lp57
g4
(g5
g6
NtRp58
(dp59
g9
F1.0000000000000001e+25
sg10
S'ia(0.283195811396,0.283196581335)'
p60
sg12
I01
sg13
I00
sg14
F0.28319658133451853
sg15
F0.28319581139638561
sbasS'Awp'
p61
(lp62
g4
(g5
g6
NtRp63
(dp64
g9
F1.0000000000000001e+25
sg10
S'ia(1997.70216422,1997.70222422)'
p65
sg12
I01
sg13
I00
sg14
F1997.70222421943
sg15
F1997.7021642194302
sbasS'LCG'
p66
(lp67
g4
(g5
g6
NtRp68
(dp69
g9
F1.0000000000000001e+25
sg10
S'ia(39.1783106802,39.1783706802)'
p70
sg12
I01
sg13
I00
sg14
F39.178370680195471
sg15
F39.178310680195466
sbasS'lfsac'
p71
(lp72
g4
(g5
g6
NtRp73
(dp74
g9
F1.0000000000000001e+25
sg10
S'ia(9.6735686064,9.6736286064)'
p75
sg12
I01
sg13
I00
sg14
F9.6736286063980792
sg15
F9.6735686063980779
sbasS'draft'
p76
(lp77
g4
(g5
g6
NtRp78
(dp79
g9
F1.0000000000000001e+25
sg10
S'ia(13.5700495026,13.5701095026)'
p80
sg12
I01
sg13
I00
sg14
F13.570109502567176
sg15
F13.570049502567175
sbasS'lwl'
p81
(lp82
g4
(g5
g6
NtRp83
(dp84
g9
F1.0000000000000001e+25
sg10
S'ia(86.4084934502,86.4085165056)'
p85
sg12
I01
sg13
I00
sg14
F86.408516505605121
sg15
F86.40849345020014
sbasS'Cwp'
p86
(lp87
g4
(g5
g6
NtRp88
(dp89
g9
F1.0000000000000001e+25
sg10
S'ia(0.944777955819,0.944780552808)'
p90
sg12
I01
sg13
I00
sg14
F0.94478055280814077
sg15
F0.94477795581865498
sbasS'lfcp'
p91
(lp92
g4
(g5
g6
NtRp93
(dp94
g9
F1.0000000000000001e+25
sg10
S'ia(15.3755224641,15.3755824641)'
p95
sg12
I01
sg13
I00
sg14
F15.375582464144406
sg15
F15.375522464144405
sbasS'Cp'
p96
(lp97
g4
(g5
g6
NtRp98
(dp99
g9
F1.0000000000000001e+25
sg10
S'ia(0.669740185598,0.669749698282)'
p100
sg12
I01
sg13
I00
sg14
F0.6697496982818727
sg15
F0.66974018559837067
sbasS'bwl'
p101
(lp102
g4
(g5
g6
NtRp103
(dp104
g9
F1.0000000000000001e+25
sg10
S'ia(24.4705299434,24.4705899434)'
p105
sg12
I01
sg13
I00
sg14
F24.470589943362818
sg15
F24.47052994336282
sbasS'Acp'
p106
(lp107
g4
(g5
g6
NtRp108
(dp109
g9
F1.0000000000000001e+25
sg10
S'ia(991.30900849,991.30906849)'
p110
sg12
I01
sg13
I00
sg14
F991.30906849046448
sg15
F991.30900849046441
sbas.