(dp1
S'disp'
p2
(lp3
ccopy_reg
_reconstructor
p4
(cextended_interval_arithmetic
ia
p5
c__builtin__
object
p6
NtRp7
(dp8
S'infinity'
p9
F1.0000000000000001e+25
sS'name'
p10
S'ia(19719.5667754,19719.5668272)'
p11
sS'has_mp'
p12
I01
sS'isempty'
p13
I00
sS'sup'
p14
F19719.566827230625
sS'inf'
p15
F19719.566775351868
sbasS'Ccp'
p16
(lp17
g4
(g5
g6
NtRp18
(dp19
g9
F1.0000000000000001e+25
sg10
S'ia(0.822642134575,0.822645719518)'
p20
sg12
I01
sg13
I00
sg14
F0.82264571951804122
sg15
F0.82264213457533941
sbasS'lfwl'
p21
(lp22
g4
(g5
g6
NtRp23
(dp24
g9
F1.0000000000000001e+25
sg10
S'ia(18.1803474739,18.1804074739)'
p25
sg12
I01
sg13
I00
sg14
F18.180407473921957
sg15
F18.180347473921959
sbasS'Cdl'
p26
(lp27
g4
(g5
g6
NtRp28
(dp29
g9
F1.0000000000000001e+25
sg10
S'ia(240.234741363,240.234801363)'
p30
sg12
I01
sg13
I00
sg14
F240.23480136253079
sg15
F240.23474136253077
sbasS'Amsh'
p31
(lp32
g4
(g5
g6
NtRp33
(dp34
g9
F1.0000000000000001e+25
sg10
S'ia(389.788285031,389.788345031)'
p35
sg12
I01
sg13
I00
sg14
F389.78834503118964
sg15
F389.78828503118967
sbasS'vol'
p36
(lp37
g4
(g5
g6
NtRp38
(dp39
g9
F1.0000000000000001e+25
sg10
S'ia(19719.5667754,19719.5668272)'
p40
sg12
I01
sg13
I00
sg14
F19719.566827230625
sg15
F19719.566775351868
sbasS'Cb'
p41
(lp42
g4
(g5
g6
NtRp43
(dp44
g9
F1.0000000000000001e+25
sg10
S'ia(0.591730511248,0.591734353029)'
p45
sg12
I01
sg13
I00
sg14
F0.5917343530285093
sg15
F0.59173051124833154
sbasS'Clcg'
p46
(lp47
g4
(g5
g6
NtRp48
(dp49
g9
F1.0000000000000001e+25
sg10
S'ia(0.483356200823,0.483357053769)'
p50
sg12
I01
sg13
I00
sg14
F0.48335705376921767
sg15
F0.48335620082302894
sbasS'Cmidshp'
p51
(lp52
g4
(g5
g6
NtRp53
(dp54
g9
F1.0000000000000001e+25
sg10
S'ia(0.960101026516,0.960107162868)'
p55
sg12
I01
sg13
I00
sg14
F0.96010716286776776
sg15
F0.96010102651576612
sbasS'Cbl'
p56
(lp57
g4
(g5
g6
NtRp58
(dp59
g9
F1.0000000000000001e+25
sg10
S'ia(0.333482467256,0.333483282376)'
p60
sg12
I01
sg13
I00
sg14
F0.3334832823757975
sg15
F0.3334824672557225
sbasS'Awp'
p61
(lp62
g4
(g5
g6
NtRp63
(dp64
g9
F1.0000000000000001e+25
sg10
S'ia(1870.17277005,1870.17283005)'
p65
sg12
I01
sg13
I00
sg14
F1870.1728300494412
sg15
F1870.1727700494414
sbasS'LCG'
p66
(lp67
g4
(g5
g6
NtRp68
(dp69
g9
F1.0000000000000001e+25
sg10
S'ia(39.6760886849,39.6761486849)'
p70
sg12
I01
sg13
I00
sg14
F39.676148684867705
sg15
F39.6760886848677
sbasS'lfsac'
p71
(lp72
g4
(g5
g6
NtRp73
(dp74
g9
F1.0000000000000001e+25
sg10
S'ia(5.03220877289,5.03226877289)'
p75
sg12
I01
sg13
I00
sg14
F5.0322687728946098
sg15
F5.0322087728946103
sbasS'draft'
p76
(lp77
g4
(g5
g6
NtRp78
(dp79
g9
F1.0000000000000001e+25
sg10
S'ia(14.8311414039,14.8312014039)'
p80
sg12
I01
sg13
I00
sg14
F14.831201403887999
sg15
F14.831141403887997
sbasS'lwl'
p81
(lp82
g4
(g5
g6
NtRp83
(dp84
g9
F1.0000000000000001e+25
sg10
S'ia(82.0845550416,82.0845757586)'
p85
sg12
I01
sg13
I00
sg14
F82.084575758642842
sg15
F82.084555041605682
sbasS'Cwp'
p86
(lp87
g4
(g5
g6
NtRp88
(dp89
g9
F1.0000000000000001e+25
sg10
S'ia(0.832309124105,0.832311185193)'
p90
sg12
I01
sg13
I00
sg14
F0.83231118519277436
sg15
F0.8323091241046312
sbasS'lfcp'
p91
(lp92
g4
(g5
g6
NtRp93
(dp94
g9
F1.0000000000000001e+25
sg10
S'ia(7.84069667765,7.84075667765)'
p95
sg12
I01
sg13
I00
sg14
F7.8407566776470885
sg15
F7.840696677647089
sbasS'Cp'
p96
(lp97
g4
(g5
g6
NtRp98
(dp99
g9
F1.0000000000000001e+25
sg10
S'ia(0.616317150974,0.616325091512)'
p100
sg12
I01
sg13
I00
sg14
F0.61632509151243176
sg15
F0.61631715097393613
sbasS'bwl'
p101
(lp102
g4
(g5
g6
NtRp103
(dp104
g9
F1.0000000000000001e+25
sg10
S'ia(27.3737668476,27.3738268476)'
p105
sg12
I01
sg13
I00
sg14
F27.373826847631481
sg15
F27.373766847631483
sbasS'Acp'
p106
(lp107
g4
(g5
g6
NtRp108
(dp109
g9
F1.0000000000000001e+25
sg10
S'ia(1001.49512634,1001.49518634)'
p110
sg12
I01
sg13
I00
sg14
F1001.4951863379965
sg15
F1001.4951263379965
sbas.