(dp1
S'disp'
p2
(lp3
ccopy_reg
_reconstructor
p4
(cextended_interval_arithmetic
ia
p5
c__builtin__
object
p6
NtRp7
(dp8
S'infinity'
p9
F1.0000000000000001e+25
sS'name'
p10
S'ia(31713.2458053,31713.2517276)'
p11
sS'has_mp'
p12
I01
sS'isempty'
p13
I00
sS'tol'
p14
F1.0000000000000001e-15
sS'sup'
p15
F31713.251727562889
sS'inf'
p16
F31713.245805299306
sbasS'Ccp'
p17
(lp18
g4
(g5
g6
NtRp19
(dp20
g9
F1.0000000000000001e+25
sg10
S'ia(0.84,0.840069684535)'
p21
sg12
I01
sg13
I00
sg14
F1.0000000000000001e-15
sg15
F0.84006968453483322
sg16
F0.83999999999999997
sbasS'lfwl'
p22
(lp23
g4
(g5
g6
NtRp24
(dp25
g9
F1.0000000000000001e+25
sg10
S'ia(13.8100804619,13.8160804619)'
p26
sg12
I01
sg13
I00
sg14
F1.0000000000000001e-15
sg15
F13.816080461885694
sg16
F13.810080461885693
sbasS'Cdl'
p27
(lp28
g4
(g5
g6
NtRp29
(dp30
g9
F1.0000000000000001e+25
sg10
S'ia(0.0192932434302,0.0192961899421)'
p31
sg12
I01
sg13
I00
sg14
F1.0000000000000001e-15
sg15
F0.019296189942106922
sg16
F0.019293243430153696
sbasS'lfsac'
p32
(lp33
g4
(g5
g6
NtRp34
(dp35
g9
F1.0000000000000001e+25
sg10
S'ia(7.57620879235,7.58220879235)'
p36
sg12
I01
sg13
I00
sg14
F1.0000000000000001e-15
sg15
F7.5822087923500714
sg16
F7.5762087923500712
sbasS'Amsh'
p37
(lp38
g4
(g5
g6
NtRp39
(dp40
g9
F1.0000000000000001e+25
sg10
S'ia(382.332911345,382.338911345)'
p41
sg12
I01
sg13
I00
sg14
F1.0000000000000001e-15
sg15
F382.33891134498231
sg16
F382.33291134498234
sbasS'vol'
p42
(lp43
g4
(g5
g6
NtRp44
(dp45
g9
F1.0000000000000001e+25
sg10
S'ia(31713.2458053,31713.2517276)'
p46
sg12
I01
sg13
I00
sg14
F1.0000000000000001e-15
sg15
F31713.251727562889
sg16
F31713.245805299306
sbasS'Cb'
p47
(lp48
g4
(g5
g6
NtRp49
(dp50
g9
F1.0000000000000001e+25
sg10
S'ia(0.637963248007,0.63818521469)'
p51
sg12
I01
sg13
I00
sg14
F1.0000000000000001e-15
sg15
F0.63818521469000256
sg16
F0.63796324800727211
sbasS'Clcg'
p52
(lp53
g4
(g5
g6
NtRp54
(dp55
g9
F1.0000000000000001e+25
sg10
S'ia(0.489532629674,0.48960836146)'
p56
sg12
I01
sg13
I00
sg14
F1.0000000000000001e-15
sg15
F0.48960836146036579
sg16
F0.4895326296738623
sbasS'Cmidshp'
p57
(lp58
g4
(g5
g6
NtRp59
(dp60
g9
F1.0000000000000001e+25
sg10
S'ia(0.907698881926,0.907970034714)'
p61
sg12
I01
sg13
I00
sg14
F1.0000000000000001e-15
sg15
F0.90797003471418336
sg16
F0.90769888192577619
sbasS'Clb'
p62
(lp63
g4
(g5
g6
NtRp64
(dp65
g9
F1.0000000000000001e+25
sg10
S'ia(4.20639710822,4.20751080928)'
p66
sg12
I01
sg13
I00
sg14
F1.0000000000000001e-15
sg15
F4.2075108092772133
sg16
F4.206397108222677
sbasS'Awp'
p67
(lp68
g4
(g5
g6
NtRp69
(dp70
g9
F1.0000000000000001e+25
sg10
S'ia(3192.55984809,3192.56584809)'
p71
sg12
I01
sg13
I00
sg14
F1.0000000000000001e-15
sg15
F3192.5658480948773
sg16
F3192.559848094877
sbasS'LCG'
p72
(lp73
g4
(g5
g6
NtRp74
(dp75
g9
F1.0000000000000001e+25
sg10
S'ia(57.7732494138,57.7792494138)'
p76
sg12
I01
sg13
I00
sg14
F1.0000000000000001e-15
sg15
F57.779249413844809
sg16
F57.773249413844809
sbasS'Acp'
p77
(lp78
g4
(g5
g6
NtRp79
(dp80
g9
F1.0000000000000001e+25
sg10
S'ia(1488.29042862,1488.29642862)'
p81
sg12
I01
sg13
I00
sg14
F1.0000000000000001e-15
sg15
F1488.2964286219917
sg16
F1488.2904286219919
sbasS'draft'
p82
(lp83
g4
(g5
g6
NtRp84
(dp85
g9
F1.0000000000000001e+25
sg10
S'ia(15.0124321348,15.0136775329)'
p86
sg12
I01
sg13
I00
sg14
F1.0000000000000001e-15
sg15
F15.013677532884655
sg16
F15.012432134848902
sbasS'lwl'
p87
(lp88
g4
(g5
g6
NtRp89
(dp90
g9
F1.0000000000000001e+25
sg10
S'ia(118.011157411,118.017157411)'
p91
sg12
I01
sg13
I00
sg14
F1.0000000000000001e-15
sg15
F118.01715741059927
sg16
F118.01115741059927
sbasS'Cwp'
p92
(lp93
g4
(g5
g6
NtRp94
(dp95
g9
F1.0000000000000001e+25
sg10
S'ia(0.964231017586,0.964488123536)'
p96
sg12
I01
sg13
I00
sg14
F1.0000000000000001e-15
sg15
F0.96448812353633462
sg16
F0.96423101758575491
sbasS'lfcp'
p97
(lp98
g4
(g5
g6
NtRp99
(dp100
g9
F1.0000000000000001e+25
sg10
S'ia(7.76091969628,7.76691969628)'
p101
sg12
I01
sg13
I00
sg14
F1.0000000000000001e-15
sg15
F7.7669196962770686
sg16
F7.7609196962770683
sbasS'Cp'
p102
(lp103
g4
(g5
g6
NtRp104
(dp105
g9
F1.0000000000000001e+25
sg10
S'ia(0.702625883692,0.703080313745)'
p106
sg12
I01
sg13
I00
sg14
F1.0000000000000001e-15
sg15
F0.70308031374460578
sg16
F0.70262588369239987
sbasS'bwl'
p107
(lp108
g4
(g5
g6
NtRp109
(dp110
g9
F1.0000000000000001e+25
sg10
S'ia(28.0491632132,28.0551632132)'
p111
sg12
I01
sg13
I00
sg14
F1.0000000000000001e-15
sg15
F28.055163213171365
sg16
F28.049163213171365
sbas.