(dp1
S'disp'
p2
(lp3
ccopy_reg
_reconstructor
p4
(cextended_interval_arithmetic
ia
p5
c__builtin__
object
p6
NtRp7
(dp8
S'infinity'
p9
F1.0000000000000001e+25
sS'name'
p10
S'ia(16753.6553243,16753.6553568)'
p11
sS'has_mp'
p12
I01
sS'isempty'
p13
I00
sS'sup'
p14
F16753.655356845273
sS'inf'
p15
F16753.655324347044
sbasS'Ccp'
p16
(lp17
g4
(g5
g6
NtRp18
(dp19
g9
F1.0000000000000001e+25
sg10
S'ia(0.835434998715,0.835439171889)'
p20
sg12
I01
sg13
I00
sg14
F0.83543917188887529
sg15
F0.83543499871544913
sbasS'lfwl'
p21
(lp22
g4
(g5
g6
NtRp23
(dp24
g9
F1.0000000000000001e+25
sg10
S'ia(9.54576775448,9.54582775448)'
p25
sg12
I01
sg13
I00
sg14
F9.5458277544820049
sg15
F9.5457677544820037
sbasS'Cdl'
p26
(lp27
g4
(g5
g6
NtRp28
(dp29
g9
F1.0000000000000001e+25
sg10
S'ia(208.118572211,208.118632211)'
p30
sg12
I01
sg13
I00
sg14
F208.11863221060054
sg15
F208.11857221060052
sbasS'Amsh'
p31
(lp32
g4
(g5
g6
NtRp33
(dp34
g9
F1.0000000000000001e+25
sg10
S'ia(342.711938441,342.711998441)'
p35
sg12
I01
sg13
I00
sg14
F342.71199844071367
sg15
F342.71193844071371
sbasS'vol'
p36
(lp37
g4
(g5
g6
NtRp38
(dp39
g9
F1.0000000000000001e+25
sg10
S'ia(16753.6553243,16753.6553568)'
p40
sg12
I01
sg13
I00
sg14
F16753.655356845273
sg15
F16753.655324347044
sbasS'Cb'
p41
(lp42
g4
(g5
g6
NtRp43
(dp44
g9
F1.0000000000000001e+25
sg10
S'ia(0.59240992072,0.59241414971)'
p45
sg12
I01
sg13
I00
sg14
F0.59241414971016848
sg15
F0.59240992071957732
sbasS'Clcg'
p46
(lp47
g4
(g5
g6
NtRp48
(dp49
g9
F1.0000000000000001e+25
sg10
S'ia(0.470929268827,0.470930150845)'
p50
sg12
I01
sg13
I00
sg14
F0.47093015084537609
sg15
F0.47092926882737124
sbasS'Cmidshp'
p51
(lp52
g4
(g5
g6
NtRp53
(dp54
g9
F1.0000000000000001e+25
sg10
S'ia(0.975530201455,0.975537051159)'
p55
sg12
I01
sg13
I00
sg14
F0.97553705115865341
sg15
F0.97553020145502556
sbasS'Cbl'
p56
(lp57
g4
(g5
g6
NtRp58
(dp59
g9
F1.0000000000000001e+25
sg10
S'ia(0.337196063008,0.337196906212)'
p60
sg12
I01
sg13
I00
sg14
F0.33719690621205112
sg15
F0.33719606300836574
sbasS'Awp'
p61
(lp62
g4
(g5
g6
NtRp63
(dp64
g9
F1.0000000000000001e+25
sg10
S'ia(2039.67010769,2039.67016769)'
p65
sg12
I01
sg13
I00
sg14
F2039.6701676903638
sg15
F2039.6701076903639
sbasS'LCG'
p66
(lp67
g4
(g5
g6
NtRp68
(dp69
g9
F1.0000000000000001e+25
sg10
S'ia(37.9100557129,37.9101157129)'
p70
sg12
I01
sg13
I00
sg14
F37.910115712860836
sg15
F37.910055712860832
sbasS'lfsac'
p71
(lp72
g4
(g5
g6
NtRp73
(dp74
g9
F1.0000000000000001e+25
sg10
S'ia(2.41050002285,2.41056002285)'
p75
sg12
I01
sg13
I00
sg14
F2.4105600228519064
sg15
F2.410500022851906
sbasS'draft'
p76
(lp77
g4
(g5
g6
NtRp78
(dp79
g9
F1.0000000000000001e+25
sg10
S'ia(12.942086735,12.942146735)'
p80
sg12
I01
sg13
I00
sg14
F12.942146735026123
sg15
F12.942086735026122
sbasS'lwl'
p81
(lp82
g4
(g5
g6
NtRp83
(dp84
g9
F1.0000000000000001e+25
sg10
S'ia(80.5005065928,80.500529957)'
p85
sg12
I01
sg13
I00
sg14
F80.500529956989226
sg15
F80.50050659276674
sbasS'Cwp'
p86
(lp87
g4
(g5
g6
NtRp88
(dp89
g9
F1.0000000000000001e+25
sg10
S'ia(0.933424072641,0.93342643425)'
p90
sg12
I01
sg13
I00
sg14
F0.93342643425030125
sg15
F0.93342407264087501
sbasS'lfcp'
p91
(lp92
g4
(g5
g6
NtRp93
(dp94
g9
F1.0000000000000001e+25
sg10
S'ia(3.98460988444,3.98466988444)'
p95
sg12
I01
sg13
I00
sg14
F3.9846698844382007
sg15
F3.9846098844382003
sbasS'Cp'
p96
(lp97
g4
(g5
g6
NtRp98
(dp99
g9
F1.0000000000000001e+25
sg10
S'ia(0.607265423713,0.607274022707)'
p100
sg12
I01
sg13
I00
sg14
F0.60727402270741515
sg15
F0.60726542371298675
sbasS'bwl'
p101
(lp102
g4
(g5
g6
NtRp103
(dp104
g9
F1.0000000000000001e+25
sg10
S'ia(27.1444617716,27.1445217716)'
p105
sg12
I01
sg13
I00
sg14
F27.144521771583772
sg15
F27.144461771583774
sbasS'Acp'
p106
(lp107
g4
(g5
g6
NtRp108
(dp109
g9
F1.0000000000000001e+25
sg10
S'ia(870.397678512,870.397738512)'
p110
sg12
I01
sg13
I00
sg14
F870.39773851240659
sg15
F870.39767851240651
sbas.