(dp1
S'disp'
p2
(lp3
ccopy_reg
_reconstructor
p4
(cextended_interval_arithmetic
ia
p5
c__builtin__
object
p6
NtRp7
(dp8
S'infinity'
p9
F1.0000000000000001e+25
sS'name'
p10
S'ia(33537.0394583,33537.0447965)'
p11
sS'has_mp'
p12
I01
sS'isempty'
p13
I00
sS'tol'
p14
F1.0000000000000001e-15
sS'sup'
p15
F33537.044796515183
sS'inf'
p16
F33537.039458329484
sbasS'Ccp'
p17
(lp18
g4
(g5
g6
NtRp19
(dp20
g9
F1.0000000000000001e+25
sg10
S'ia(0.85541660756,0.855511555371)'
p21
sg12
I01
sg13
I00
sg14
F1.0000000000000001e-15
sg15
F0.85551155537093393
sg16
F0.85541660755957827
sbasS'lfwl'
p22
(lp23
g4
(g5
g6
NtRp24
(dp25
g9
F1.0000000000000001e+25
sg10
S'ia(33.8854918219,33.8914918219)'
p26
sg12
I01
sg13
I00
sg14
F1.0000000000000001e-15
sg15
F33.891491821859034
sg16
F33.885491821859034
sbasS'Cdl'
p27
(lp28
g4
(g5
g6
NtRp29
(dp30
g9
F1.0000000000000001e+25
sg10
S'ia(0.0199439302385,0.0199469255602)'
p31
sg12
I01
sg13
I00
sg14
F1.0000000000000001e-15
sg15
F0.019946925560237673
sg16
F0.019943930238482337
sbasS'lfsac'
p32
(lp33
g4
(g5
g6
NtRp34
(dp35
g9
F1.0000000000000001e+25
sg10
S'ia(13.8026208477,13.8086208477)'
p36
sg12
I01
sg13
I00
sg14
F1.0000000000000001e-15
sg15
F13.808620847684635
sg16
F13.802620847684635
sbasS'Amsh'
p37
(lp38
g4
(g5
g6
NtRp39
(dp40
g9
F1.0000000000000001e+25
sg10
S'ia(398.930446408,398.936446408)'
p41
sg12
I01
sg13
I00
sg14
F1.0000000000000001e-15
sg15
F398.93644640799749
sg16
F398.93044640799752
sbasS'vol'
p42
(lp43
g4
(g5
g6
NtRp44
(dp45
g9
F1.0000000000000001e+25
sg10
S'ia(33537.0394583,33537.0447965)'
p46
sg12
I01
sg13
I00
sg14
F1.0000000000000001e-15
sg15
F33537.044796515183
sg16
F33537.039458329484
sbasS'Cb'
p47
(lp48
g4
(g5
g6
NtRp49
(dp50
g9
F1.0000000000000001e+25
sg10
S'ia(0.636485004811,0.636645828047)'
p51
sg12
I01
sg13
I00
sg14
F1.0000000000000001e-15
sg15
F0.63664582804722603
sg16
F0.63648500481108727
sbasS'Clcg'
p52
(lp53
g4
(g5
g6
NtRp54
(dp55
g9
F1.0000000000000001e+25
sg10
S'ia(0.507815568076,0.507891420888)'
p56
sg12
I01
sg13
I00
sg14
F1.0000000000000001e-15
sg15
F0.50789142088800721
sg16
F0.50781556807590833
sbasS'Cmidshp'
p57
(lp58
g4
(g5
g6
NtRp59
(dp60
g9
F1.0000000000000001e+25
sg10
S'ia(0.900395878836,0.900519447019)'
p61
sg12
I01
sg13
I00
sg14
F1.0000000000000001e-15
sg15
F0.90051944701863795
sg16
F0.90039587883588534
sbasS'Clb'
p62
(lp63
g4
(g5
g6
NtRp64
(dp65
g9
F1.0000000000000001e+25
sg10
S'ia(4.22156491284,4.22216227749)'
p66
sg12
I01
sg13
I00
sg14
F1.0000000000000001e-15
sg15
F4.2221622774883336
sg16
F4.2215649128370236
sbasS'Awp'
p67
(lp68
g4
(g5
g6
NtRp69
(dp70
g9
F1.0000000000000001e+25
sg10
S'ia(3091.4635762,3091.4695762)'
p71
sg12
I01
sg13
I00
sg14
F1.0000000000000001e-15
sg15
F3091.4695762012907
sg16
F3091.4635762012904
sbasS'LCG'
p72
(lp73
g4
(g5
g6
NtRp74
(dp75
g9
F1.0000000000000001e+25
sg10
S'ia(60.3870762144,60.3930762144)'
p76
sg12
I01
sg13
I00
sg14
F1.0000000000000001e-15
sg15
F60.3930762144102
sg16
F60.3870762144102
sbasS'Acp'
p77
(lp78
g4
(g5
g6
NtRp79
(dp80
g9
F1.0000000000000001e+25
sg10
S'ia(1600.10349701,1600.10949701)'
p81
sg12
I01
sg13
I00
sg14
F1.0000000000000001e-15
sg15
F1600.109497014447
sg16
F1600.1034970144472
sbasS'draft'
p82
(lp83
g4
(g5
g6
NtRp84
(dp85
g9
F1.0000000000000001e+25
sg10
S'ia(15.7292330903,15.730978972)'
p86
sg12
I01
sg13
I00
sg14
F1.0000000000000001e-15
sg15
F15.730978972037295
sg16
F15.72923309027275
sbasS'lwl'
p87
(lp88
g4
(g5
g6
NtRp89
(dp90
g9
F1.0000000000000001e+25
sg10
S'ia(118.909423807,118.915370088)'
p91
sg12
I01
sg13
I00
sg14
F1.0000000000000001e-15
sg15
F118.91537008842452
sg16
F118.90942380719446
sbasS'Cwp'
p92
(lp93
g4
(g5
g6
NtRp94
(dp95
g9
F1.0000000000000001e+25
sg10
S'ia(0.922960976411,0.923087647168)'
p96
sg12
I01
sg13
I00
sg14
F1.0000000000000001e-15
sg15
F0.92308764716833036
sg16
F0.92296097641074581
sbasS'lfcp'
p97
(lp98
g4
(g5
g6
NtRp99
(dp100
g9
F1.0000000000000001e+25
sg10
S'ia(14.2996586031,14.3056586031)'
p101
sg12
I01
sg13
I00
sg14
F1.0000000000000001e-15
sg15
F14.30565860306713
sg16
F14.29965860306713
sbasS'Cp'
p102
(lp103
g4
(g5
g6
NtRp104
(dp105
g9
F1.0000000000000001e+25
sg10
S'ia(0.706797623214,0.707073236353)'
p106
sg12
I01
sg13
I00
sg14
F1.0000000000000001e-15
sg15
F0.7070732363528146
sg16
F0.70679762321436446
sbasS'bwl'
p107
(lp108
g4
(g5
g6
NtRp109
(dp110
g9
F1.0000000000000001e+25
sg10
S'ia(28.1645664645,28.1671432898)'
p111
sg12
I01
sg13
I00
sg14
F1.0000000000000001e-15
sg15
F28.167143289828886
sg16
F28.164566464547292
sbas.