(dp1
S'disp'
p2
(lp3
ccopy_reg
_reconstructor
p4
(cextended_interval_arithmetic
ia
p5
c__builtin__
object
p6
NtRp7
(dp8
S'infinity'
p9
F1.0000000000000001e+25
sS'name'
p10
S'ia(19903.4545577,19903.454599)'
p11
sS'has_mp'
p12
I01
sS'isempty'
p13
I00
sS'tol'
p14
F1.0000000000000001e-15
sS'sup'
p15
F19903.454598995464
sS'inf'
p16
F19903.454557706424
sbasS'Ccp'
p17
(lp18
g4
(g5
g6
NtRp19
(dp20
g9
F1.0000000000000001e+25
sg10
S'ia(0.806453276967,0.806456537593)'
p21
sg12
I01
sg13
I00
sg14
F1.0000000000000001e-15
sg15
F0.80645653759316516
sg16
F0.80645327696671676
sbasS'lfwl'
p22
(lp23
g4
(g5
g6
NtRp24
(dp25
g9
F1.0000000000000001e+25
sg10
S'ia(24.4572244709,24.4572844709)'
p26
sg12
I01
sg13
I00
sg14
F1.0000000000000001e-15
sg15
F24.45728447091928
sg16
F24.457224470919282
sbasS'Cdl'
p27
(lp28
g4
(g5
g6
NtRp29
(dp30
g9
F1.0000000000000001e+25
sg10
S'ia(241.786178588,241.786238588)'
p31
sg12
I01
sg13
I00
sg14
F1.0000000000000001e-15
sg15
F241.78623858807939
sg16
F241.78617858807937
sbasS'Amsh'
p32
(lp33
g4
(g5
g6
NtRp34
(dp35
g9
F1.0000000000000001e+25
sg10
S'ia(401.608678958,401.608738958)'
p36
sg12
I01
sg13
I00
sg14
F1.0000000000000001e-15
sg15
F401.60873895770993
sg16
F401.60867895770997
sbasS'vol'
p37
(lp38
g4
(g5
g6
NtRp39
(dp40
g9
F1.0000000000000001e+25
sg10
S'ia(19903.4545577,19903.454599)'
p41
sg12
I01
sg13
I00
sg14
F1.0000000000000001e-15
sg15
F19903.454598995464
sg16
F19903.454557706424
sbasS'Cb'
p42
(lp43
g4
(g5
g6
NtRp44
(dp45
g9
F1.0000000000000001e+25
sg10
S'ia(0.577383588477,0.577387220012)'
p46
sg12
I01
sg13
I00
sg14
F1.0000000000000001e-15
sg15
F0.57738722001198006
sg16
F0.57738358847679583
sbasS'Clcg'
p47
(lp48
g4
(g5
g6
NtRp49
(dp50
g9
F1.0000000000000001e+25
sg10
S'ia(0.464535229789,0.464536074906)'
p51
sg12
I01
sg13
I00
sg14
F1.0000000000000001e-15
sg15
F0.4645360749061529
sg16
F0.4645352297894087
sbasS'Cmidshp'
p52
(lp53
g4
(g5
g6
NtRp54
(dp55
g9
F1.0000000000000001e+25
sg10
S'ia(0.959038527575,0.959044460894)'
p56
sg12
I01
sg13
I00
sg14
F1.0000000000000001e-15
sg15
F0.95904446089392359
sg16
F0.95903852757484398
sbasS'Cbl'
p57
(lp58
g4
(g5
g6
NtRp59
(dp60
g9
F1.0000000000000001e+25
sg10
S'ia(0.316810051286,0.316810859437)'
p61
sg12
I01
sg13
I00
sg14
F1.0000000000000001e-15
sg15
F0.31681085943743037
sg16
F0.31681005128560447
sbasS'Awp'
p62
(lp63
g4
(g5
g6
NtRp64
(dp65
g9
F1.0000000000000001e+25
sg10
S'ia(1782.56795295,1782.56801295)'
p66
sg12
I01
sg13
I00
sg14
F1.0000000000000001e-15
sg15
F1782.5680129529344
sg16
F1782.5679529529345
sbasS'LCG'
p67
(lp68
g4
(g5
g6
NtRp69
(dp70
g9
F1.0000000000000001e+25
sg10
S'ia(38.2398030762,38.2398630762)'
p71
sg12
I01
sg13
I00
sg14
F1.0000000000000001e-15
sg15
F38.239863076168326
sg16
F38.239803076168322
sbasS'lfsac'
p72
(lp73
g4
(g5
g6
NtRp74
(dp75
g9
F1.0000000000000001e+25
sg10
S'ia(6.4574990529,6.4575590529)'
p76
sg12
I01
sg13
I00
sg14
F1.0000000000000001e-15
sg15
F6.4575590528953812
sg16
F6.4574990528953817
sbasS'draft'
p77
(lp78
g4
(g5
g6
NtRp79
(dp80
g9
F1.0000000000000001e+25
sg10
S'ia(16.0571502111,16.0572102111)'
p81
sg12
I01
sg13
I00
sg14
F1.0000000000000001e-15
sg15
F16.057210211141268
sg16
F16.05715021114127
sbasS'lwl'
p82
(lp83
g4
(g5
g6
NtRp84
(dp85
g9
F1.0000000000000001e+25
sg10
S'ia(82.3183927834,82.3184133817)'
p86
sg12
I01
sg13
I00
sg14
F1.0000000000000001e-15
sg15
F82.318413381701674
sg16
F82.318392783367074
sbasS'Cwp'
p87
(lp88
g4
(g5
g6
NtRp89
(dp90
g9
F1.0000000000000001e+25
sg10
S'ia(0.830332737529,0.830334883576)'
p91
sg12
I01
sg13
I00
sg14
F1.0000000000000001e-15
sg15
F0.83033488357569263
sg16
F0.83033273752862335
sbasS'lfcp'
p92
(lp93
g4
(g5
g6
NtRp94
(dp95
g9
F1.0000000000000001e+25
sg10
S'ia(11.5654047566,11.5654647566)'
p96
sg12
I01
sg13
I00
sg14
F1.0000000000000001e-15
sg15
F11.56546475656223
sg16
F11.565404756562229
sbasS'Cp'
p97
(lp98
g4
(g5
g6
NtRp99
(dp100
g9
F1.0000000000000001e+25
sg10
S'ia(0.602040480937,0.602047992245)'
p101
sg12
I01
sg13
I00
sg14
F1.0000000000000001e-15
sg15
F0.60204799224494177
sg16
F0.60204048093726292
sbasS'bwl'
p102
(lp103
g4
(g5
g6
NtRp104
(dp105
g9
F1.0000000000000001e+25
sg10
S'ia(26.0793007652,26.0793607652)'
p106
sg12
I01
sg13
I00
sg14
F1.0000000000000001e-15
sg15
F26.079360765206491
sg16
F26.079300765206494
sbasS'Acp'
p107
(lp108
g4
(g5
g6
NtRp109
(dp110
g9
F1.0000000000000001e+25
sg10
S'ia(1065.97322208,1065.97328208)'
p111
sg12
I01
sg13
I00
sg14
F1.0000000000000001e-15
sg15
F1065.9732820800916
sg16
F1065.9732220800918
sbas.