(dp1
S'disp'
p2
(lp3
ccopy_reg
_reconstructor
p4
(cextended_interval_arithmetic
ia
p5
c__builtin__
object
p6
NtRp7
(dp8
S'infinity'
p9
F1.0000000000000001e+25
sS'name'
p10
S'ia(19764.3922866,19764.3923277)'
p11
sS'has_mp'
p12
I01
sS'isempty'
p13
I00
sS'sup'
p14
F19764.392327686648
sS'inf'
p15
F19764.392286597373
sbasS'Ccp'
p16
(lp17
g4
(g5
g6
NtRp18
(dp19
g9
F1.0000000000000001e+25
sg10
S'ia(0.810399044159,0.810402930126)'
p20
sg12
I01
sg13
I00
sg14
F0.81040293012588893
sg15
F0.81039904415871333
sbasS'lfwl'
p21
(lp22
g4
(g5
g6
NtRp23
(dp24
g9
F1.0000000000000001e+25
sg10
S'ia(10.0052213331,10.0052813331)'
p25
sg12
I01
sg13
I00
sg14
F10.005281333124698
sg15
F10.005221333124696
sbasS'Cdl'
p26
(lp27
g4
(g5
g6
NtRp28
(dp29
g9
F1.0000000000000001e+25
sg10
S'ia(243.159481636,243.159541636)'
p30
sg12
I01
sg13
I00
sg14
F243.15954163614197
sg15
F243.15948163614195
sbasS'Amsh'
p31
(lp32
g4
(g5
g6
NtRp33
(dp34
g9
F1.0000000000000001e+25
sg10
S'ia(390.672643178,390.672703178)'
p35
sg12
I01
sg13
I00
sg14
F390.67270317772699
sg15
F390.67264317772702
sbasS'vol'
p36
(lp37
g4
(g5
g6
NtRp38
(dp39
g9
F1.0000000000000001e+25
sg10
S'ia(19764.3922866,19764.3923277)'
p40
sg12
I01
sg13
I00
sg14
F19764.392327686648
sg15
F19764.392286597373
sbasS'Cb'
p41
(lp42
g4
(g5
g6
NtRp43
(dp44
g9
F1.0000000000000001e+25
sg10
S'ia(0.607155839101,0.607159929191)'
p45
sg12
I01
sg13
I00
sg14
F0.60715992919068351
sg15
F0.60715583910123949
sbasS'Clcg'
p46
(lp47
g4
(g5
g6
NtRp48
(dp49
g9
F1.0000000000000001e+25
sg10
S'ia(0.480963891394,0.480964749247)'
p50
sg12
I01
sg13
I00
sg14
F0.48096474924711646
sg15
F0.48096389139398016
sbasS'Cmidshp'
p51
(lp52
g4
(g5
g6
NtRp53
(dp54
g9
F1.0000000000000001e+25
sg10
S'ia(0.975488084526,0.97549312577)'
p55
sg12
I01
sg13
I00
sg14
F0.97549312576961311
sg15
F0.97548808452609492
sbasS'Cbl'
p56
(lp57
g4
(g5
g6
NtRp58
(dp59
g9
F1.0000000000000001e+25
sg10
S'ia(0.367755213727,0.36775604341)'
p60
sg12
I01
sg13
I00
sg14
F0.36775604341014273
sg15
F0.36775521372678882
sbasS'Awp'
p61
(lp62
g4
(g5
g6
NtRp63
(dp64
g9
F1.0000000000000001e+25
sg10
S'ia(2066.60776437,2066.60782437)'
p65
sg12
I01
sg13
I00
sg14
F2066.6078243740694
sg15
F2066.6077643740691
sbasS'LCG'
p66
(lp67
g4
(g5
g6
NtRp68
(dp69
g9
F1.0000000000000001e+25
sg10
S'ia(39.0935158317,39.0935758317)'
p70
sg12
I01
sg13
I00
sg14
F39.09357583166306
sg15
F39.093515831663055
sbasS'lfsac'
p71
(lp72
g4
(g5
g6
NtRp73
(dp74
g9
F1.0000000000000001e+25
sg10
S'ia(2.70620187534,2.70626187534)'
p75
sg12
I01
sg13
I00
sg14
F2.7062618753442025
sg15
F2.7062018753442021
sbasS'draft'
p76
(lp77
g4
(g5
g6
NtRp78
(dp79
g9
F1.0000000000000001e+25
sg10
S'ia(13.3979119571,13.3979719571)'
p80
sg12
I01
sg13
I00
sg14
F13.397971957073551
sg15
F13.39791195707355
sbasS'lwl'
p81
(lp82
g4
(g5
g6
NtRp83
(dp84
g9
F1.0000000000000001e+25
sg10
S'ia(81.2815822633,81.2816024886)'
p85
sg12
I01
sg13
I00
sg14
F81.281602488615334
sg15
F81.281582263271119
sbasS'Cwp'
p86
(lp87
g4
(g5
g6
NtRp88
(dp89
g9
F1.0000000000000001e+25
sg10
S'ia(0.850577385754,0.850579329415)'
p90
sg12
I01
sg13
I00
sg14
F0.85057932941544656
sg15
F0.8505773857541058
sbasS'lfcp'
p91
(lp92
g4
(g5
g6
NtRp93
(dp94
g9
F1.0000000000000001e+25
sg10
S'ia(5.32549126035,5.32555126035)'
p95
sg12
I01
sg13
I00
sg14
F5.3255512603533175
sg15
F5.325491260353318
sbasS'Cp'
p96
(lp97
g4
(g5
g6
NtRp98
(dp99
g9
F1.0000000000000001e+25
sg10
S'ia(0.622409141656,0.62241655108)'
p100
sg12
I01
sg13
I00
sg14
F0.62241655108032401
sg15
F0.62240914165563732
sbasS'bwl'
p101
(lp102
g4
(g5
g6
NtRp103
(dp104
g9
F1.0000000000000001e+25
sg10
S'ia(29.8917330953,29.8917930953)'
p105
sg12
I01
sg13
I00
sg14
F29.89179309525662
sg15
F29.891733095256622
sbasS'Acp'
p106
(lp107
g4
(g5
g6
NtRp108
(dp109
g9
F1.0000000000000001e+25
sg10
S'ia(882.531553455,882.531613455)'
p110
sg12
I01
sg13
I00
sg14
F882.53161345535568
sg15
F882.53155345535561
sbas.