(dp1
S'disp'
p2
(lp3
ccopy_reg
_reconstructor
p4
(cextended_interval_arithmetic
ia
p5
c__builtin__
object
p6
NtRp7
(dp8
S'infinity'
p9
F1.0000000000000001e+25
sS'name'
p10
S'ia(19998.0574955,19998.0575366)'
p11
sS'has_mp'
p12
I01
sS'isempty'
p13
I00
sS'tol'
p14
F1.0000000000000001e-15
sS'sup'
p15
F19998.057536638127
sS'inf'
p16
F19998.057495512992
sbasS'Ccp'
p17
(lp18
g4
(g5
g6
NtRp19
(dp20
g9
F1.0000000000000001e+25
sg10
S'ia(0.804143193911,0.804147045813)'
p21
sg12
I01
sg13
I00
sg14
F1.0000000000000001e-15
sg15
F0.8041470458131772
sg16
F0.80414319391051869
sbasS'lfwl'
p22
(lp23
g4
(g5
g6
NtRp24
(dp25
g9
F1.0000000000000001e+25
sg10
S'ia(13.2328003252,13.2328603252)'
p26
sg12
I01
sg13
I00
sg14
F1.0000000000000001e-15
sg15
F13.232860325210501
sg16
F13.2328003252105
sbasS'Cdl'
p27
(lp28
g4
(g5
g6
NtRp29
(dp30
g9
F1.0000000000000001e+25
sg10
S'ia(249.676506257,249.676549151)'
p31
sg12
I01
sg13
I00
sg14
F1.0000000000000001e-15
sg15
F249.6765491512414
sg16
F249.67650625697135
sbasS'Amsh'
p32
(lp33
g4
(g5
g6
NtRp34
(dp35
g9
F1.0000000000000001e+25
sg10
S'ia(411.853654679,411.853714679)'
p36
sg12
I01
sg13
I00
sg14
F1.0000000000000001e-15
sg15
F411.85371467868953
sg16
F411.85365467868957
sbasS'vol'
p37
(lp38
g4
(g5
g6
NtRp39
(dp40
g9
F1.0000000000000001e+25
sg10
S'ia(19998.0574955,19998.0575366)'
p41
sg12
I01
sg13
I00
sg14
F1.0000000000000001e-15
sg15
F19998.057536638127
sg16
F19998.057495512992
sbasS'Cb'
p42
(lp43
g4
(g5
g6
NtRp44
(dp45
g9
F1.0000000000000001e+25
sg10
S'ia(0.594689170729,0.594692467321)'
p46
sg12
I01
sg13
I00
sg14
F1.0000000000000001e-15
sg15
F0.59469246732074654
sg16
F0.5946891707290588
sbasS'Clcg'
p47
(lp48
g4
(g5
g6
NtRp49
(dp50
g9
F1.0000000000000001e+25
sg10
S'ia(0.475210297077,0.47521112782)'
p51
sg12
I01
sg13
I00
sg14
F1.0000000000000001e-15
sg15
F0.47521112781975705
sg16
F0.4752102970765163
sbasS'Cmidshp'
p52
(lp53
g4
(g5
g6
NtRp54
(dp55
g9
F1.0000000000000001e+25
sg10
S'ia(0.980968982763,0.980974393015)'
p56
sg12
I01
sg13
I00
sg14
F1.0000000000000001e-15
sg15
F0.98097439301534251
sg16
F0.98096898276252376
sbasS'Cbl'
p57
(lp58
g4
(g5
g6
NtRp59
(dp60
g9
F1.0000000000000001e+25
sg10
S'ia(0.397294259984,0.39729465476)'
p61
sg12
I01
sg13
I00
sg14
F1.0000000000000001e-15
sg15
F0.39729465475994102
sg16
F0.39729425998403406
sbasS'Awp'
p62
(lp63
g4
(g5
g6
NtRp64
(dp65
g9
F1.0000000000000001e+25
sg10
S'ia(2387.30601049,2387.30607049)'
p66
sg12
I01
sg13
I00
sg14
F1.0000000000000001e-15
sg15
F2387.3060704920663
sg16
F2387.306010492066
sbasS'LCG'
p67
(lp68
g4
(g5
g6
NtRp69
(dp70
g9
F1.0000000000000001e+25
sg10
S'ia(38.0623831448,38.0624431448)'
p71
sg12
I01
sg13
I00
sg14
F1.0000000000000001e-15
sg15
F38.06244314475228
sg16
F38.062383144752275
sbasS'lfsac'
p72
(lp73
g4
(g5
g6
NtRp74
(dp75
g9
F1.0000000000000001e+25
sg10
S'ia(3.53590147154,3.53596147154)'
p76
sg12
I01
sg13
I00
sg14
F1.0000000000000001e-15
sg15
F3.5359614715412544
sg16
F3.535901471541254
sbasS'draft'
p77
(lp78
g4
(g5
g6
NtRp79
(dp80
g9
F1.0000000000000001e+25
sg10
S'ia(13.1935872051,13.1936472051)'
p81
sg12
I01
sg13
I00
sg14
F1.0000000000000001e-15
sg15
F13.193647205143685
sg16
F13.193587205143684
sbasS'lwl'
p82
(lp83
g4
(g5
g6
NtRp84
(dp85
g9
F1.0000000000000001e+25
sg10
S'ia(80.0958582754,80.0958720358)'
p86
sg12
I01
sg13
I00
sg14
F1.0000000000000001e-15
sg15
F80.095872035836038
sg16
F80.095858275416887
sbasS'Cwp'
p87
(lp88
g4
(g5
g6
NtRp89
(dp90
g9
F1.0000000000000001e+25
sg10
S'ia(0.936645522496,0.936646292289)'
p91
sg12
I01
sg13
I00
sg14
F1.0000000000000001e-15
sg15
F0.93664629228927587
sg16
F0.93664552249618116
sbasS'lfcp'
p92
(lp93
g4
(g5
g6
NtRp94
(dp95
g9
F1.0000000000000001e+25
sg10
S'ia(5.65611140151,5.65617140151)'
p96
sg12
I01
sg13
I00
sg14
F1.0000000000000001e-15
sg15
F5.6561714015060476
sg16
F5.6561114015060481
sbasS'Cp'
p97
(lp98
g4
(g5
g6
NtRp99
(dp100
g9
F1.0000000000000001e+25
sg10
S'ia(0.606222929939,0.606229633934)'
p101
sg12
I01
sg13
I00
sg14
F1.0000000000000001e-15
sg15
F0.60622963393401375
sg16
F0.60622292993916904
sbasS'bwl'
p102
(lp103
g4
(g5
g6
NtRp104
(dp105
g9
F1.0000000000000001e+25
sg10
S'ia(31.8216302083,31.8216563612)'
p106
sg12
I01
sg13
I00
sg14
F1.0000000000000001e-15
sg15
F31.821656361232918
sg16
F31.821630208253367
sbasS'Acp'
p107
(lp108
g4
(g5
g6
NtRp109
(dp110
g9
F1.0000000000000001e+25
sg10
S'ia(849.783690417,849.783750417)'
p111
sg12
I01
sg13
I00
sg14
F1.0000000000000001e-15
sg15
F849.78375041746267
sg16
F849.78369041746259
sbas.